; Function Attrs: mustprogress uwtable
define noundef i64 @_ZN7Archive11SearchBlockE11HEADER_TYPE(ptr noundef nonnull align 8 dereferenceable(57108) %0, i32 noundef %1) local_unnamed_addr #0 align 2 {
  %3 = tail call noundef i64 @_ZN7Archive10ReadHeaderEv(ptr noundef nonnull align 8 dereferenceable(57108) %0)
  %.not11 = icmp eq i64 %3, 0
  br i1 %.not11, label %.critedge, label %.lr.ph

.lr.ph:                                           ; preds = %2
  %.not18 = icmp eq i32 %1, 5
  %4 = getelementptr inbounds i8, ptr %0, i64 11076
  br i1 %.not18, label %.critedge2.us, label %.lr.ph.split.preheader

.lr.ph.split.preheader:                           ; preds = %.lr.ph
  %5 = load i32, ptr %4, align 4
  %.not925 = icmp eq i32 %5, 5
  br i1 %.not925, label %.critedge, label %.critedge2

.critedge2.us:                                    ; preds = %.lr.ph, %14
  %6 = phi i64 [ %15, %14 ], [ %3, %.lr.ph ]
  %.012.us = phi i64 [ %7, %14 ], [ 0, %.lr.ph ]
  %7 = add i64 %.012.us, 1
  %8 = and i64 %7, 127
  %9 = icmp eq i64 %8, 0
  br i1 %9, label %10, label %11

10:                                               ; preds = %.critedge2.us
  tail call void @_Z4Waitv()
  br label %11

11:                                               ; preds = %10, %.critedge2.us
  %12 = load i32, ptr %4, align 4
  %13 = icmp eq i32 %12, 5
  br i1 %13, label %.critedge, label %14

14:                                               ; preds = %11
  tail call void @_ZN7Archive10SeekToNextEv(ptr noundef nonnull align 8 dereferenceable(57108) %0)
  %15 = tail call noundef i64 @_ZN7Archive10ReadHeaderEv(ptr noundef nonnull align 8 dereferenceable(57108) %0)
  %.not.us = icmp eq i64 %15, 0
  br i1 %.not.us, label %.critedge, label %.critedge2.us, !llvm.loop !10

.critedge2:                                       ; preds = %.lr.ph.split.preheader, %25
  %16 = phi i32 [ %27, %25 ], [ %5, %.lr.ph.split.preheader ]
  %.01226 = phi i64 [ %18, %25 ], [ 0, %.lr.ph.split.preheader ]
  %17 = phi i64 [ %26, %25 ], [ %3, %.lr.ph.split.preheader ]
  %18 = add i64 %.01226, 1
  %19 = and i64 %18, 127
  %20 = icmp eq i64 %19, 0
  br i1 %20, label %21, label %22

21:                                               ; preds = %.critedge2
  tail call void @_Z4Waitv()
  %.pre = load i32, ptr %4, align 4
  br label %22

22:                                               ; preds = %21, %.critedge2
  %23 = phi i32 [ %.pre, %21 ], [ %16, %.critedge2 ]
  %24 = icmp eq i32 %23, %1
  br i1 %24, label %.critedge, label %25

25:                                               ; preds = %22
  tail call void @_ZN7Archive10SeekToNextEv(ptr noundef nonnull align 8 dereferenceable(57108) %0)
  %26 = tail call noundef i64 @_ZN7Archive10ReadHeaderEv(ptr noundef nonnull align 8 dereferenceable(57108) %0)
  %.not = icmp eq i64 %26, 0
  %27 = load i32, ptr %4, align 4
  %.not9 = icmp eq i32 %27, 5
  %or.cond = select i1 %.not, i1 true, i1 %.not9
  br i1 %or.cond, label %.critedge, label %.critedge2, !llvm.loop !10

.critedge:                                        ; preds = %25, %22, %11, %14, %.lr.ph.split.preheader, %2
  %.07 = phi i64 [ 0, %2 ], [ 0, %.lr.ph.split.preheader ], [ 0, %14 ], [ %6, %11 ], [ %17, %22 ], [ 0, %25 ]
  ret i64 %.07
}